target datalayout = "e-m:e-p270:32:32-p271:32:32-p272:64:64-i64:64-i128:128-f80:128-n8:16:32:64-S128"
target triple = "x86_64-pc-linux-gnu"

%struct.H5D_chunk_common_ud_t = type { ptr, ptr, ptr }
%struct.H5O_layout_chunk_t = type { i32, i8, i32, [33 x i32], i32, i32, i64, i64, [33 x i64], [33 x i64], [33 x i64], [33 x i64], %union.anon.0 }
%union.anon.0 = type { %struct.H5O_layout_chunk_earray_t }
%struct.H5O_layout_chunk_earray_t = type { %struct.anon.1, i32, [33 x i32], [33 x i64], [33 x i64] }
%struct.anon.1 = type { i8, i8, i8, i8, i8 }
%struct.H5D_chunk_ud_t = type { %struct.H5D_chunk_common_ud_t, i32, %struct.H5F_block_t, i32, i8, i64 }
%struct.H5F_block_t = type { i64, i64 }
%struct.H5D_btree_key_t = type { [33 x i64], i32, i32 }

@H5D_init_g = external global i8, align 1
@H5_libterm_g = external global i8, align 1

; Function Attrs: nounwind uwtable
define internal i32 @H5D__btree_found(ptr noundef %0, i64 noundef %1, ptr noundef %2, ptr noundef %3, ptr noundef %4) #0 {
  %6 = alloca ptr, align 8
  %7 = alloca i64, align 8
  %8 = alloca ptr, align 8
  %9 = alloca ptr, align 8
  %10 = alloca ptr, align 8
  %11 = alloca ptr, align 8
  %12 = alloca ptr, align 8
  %13 = alloca i32, align 4
  %14 = alloca i32, align 4
  store ptr %0, ptr %6, align 8, !tbaa !56
  store i64 %1, ptr %7, align 8, !tbaa !10
  store ptr %2, ptr %8, align 8, !tbaa !41
  store ptr %3, ptr %9, align 8, !tbaa !31
  store ptr %4, ptr %10, align 8, !tbaa !41
  call void @llvm.lifetime.start.p0(i64 8, ptr %11) #8
  %15 = load ptr, ptr %10, align 8, !tbaa !41
  store ptr %15, ptr %11, align 8, !tbaa !37
  call void @llvm.lifetime.start.p0(i64 8, ptr %12) #8
  %16 = load ptr, ptr %8, align 8, !tbaa !41
  store ptr %16, ptr %12, align 8, !tbaa !78
  call void @llvm.lifetime.start.p0(i64 4, ptr %13) #8
  call void @llvm.lifetime.start.p0(i64 4, ptr %14) #8
  store i32 0, ptr %14, align 4, !tbaa !12
  %17 = load i8, ptr @H5D_init_g, align 1, !tbaa !14, !range !16, !noundef !17
  %18 = trunc i8 %17 to i1
  br i1 %18, label %23, label %19

19:                                               ; preds = %5
  %20 = load i8, ptr @H5_libterm_g, align 1, !tbaa !14, !range !16, !noundef !17
  %21 = trunc i8 %20 to i1
  %22 = xor i1 %21, true
  br label %23

23:                                               ; preds = %19, %5
  %24 = phi i1 [ true, %5 ], [ %22, %19 ]
  %25 = xor i1 %24, true
  %26 = xor i1 %25, true
  %27 = zext i1 %26 to i32
  %28 = sext i32 %27 to i64
  %29 = call i64 @llvm.expect.i64(i64 %28, i64 1)
  %30 = icmp ne i64 %29, 0
  br i1 %30, label %31, label %86

31:                                               ; preds = %23
  store i32 0, ptr %13, align 4, !tbaa !12
  br label %32

32:                                               ; preds = %64, %31
  %33 = load i32, ptr %13, align 4, !tbaa !12
  %34 = load ptr, ptr %11, align 8, !tbaa !37
  %35 = getelementptr inbounds nuw %struct.H5D_chunk_ud_t, ptr %34, i32 0, i32 0
  %36 = getelementptr inbounds nuw %struct.H5D_chunk_common_ud_t, ptr %35, i32 0, i32 0
  %37 = load ptr, ptr %36, align 8, !tbaa !90
  %38 = getelementptr inbounds nuw %struct.H5O_layout_chunk_t, ptr %37, i32 0, i32 2
  %39 = load i32, ptr %38, align 8, !tbaa !60
  %40 = icmp ult i32 %33, %39
  br i1 %40, label %41, label %67

41:                                               ; preds = %32
  %42 = load ptr, ptr %11, align 8, !tbaa !37
  %43 = getelementptr inbounds nuw %struct.H5D_chunk_ud_t, ptr %42, i32 0, i32 0
  %44 = getelementptr inbounds nuw %struct.H5D_chunk_common_ud_t, ptr %43, i32 0, i32 2
  %45 = load ptr, ptr %44, align 8, !tbaa !91
  %46 = load i32, ptr %13, align 4, !tbaa !12
  %47 = zext i32 %46 to i64
  %48 = getelementptr inbounds nuw i64, ptr %45, i64 %47
  %49 = load i64, ptr %48, align 8, !tbaa !10
  %50 = load ptr, ptr %12, align 8, !tbaa !78
  %51 = getelementptr inbounds nuw %struct.H5D_btree_key_t, ptr %50, i32 0, i32 0
  %52 = load i32, ptr %13, align 4, !tbaa !12
  %53 = zext i32 %52 to i64
  %54 = getelementptr inbounds nuw [33 x i64], ptr %51, i64 0, i64 %53
  %55 = load i64, ptr %54, align 8, !tbaa !10
  %56 = add i64 %55, 1
  %57 = icmp uge i64 %49, %56
  br i1 %57, label %58, label %63

58:                                               ; preds = %41
  %59 = load ptr, ptr %9, align 8, !tbaa !31
  store i8 0, ptr %59, align 1, !tbaa !14
  br label %60

60:                                               ; preds = %58
  store i32 0, ptr %14, align 4, !tbaa !12
  br label %85

61:                                               ; No predecessors!
  br label %62

62:                                               ; preds = %61
  br label %63

63:                                               ; preds = %62, %41
  br label %64

64:                                               ; preds = %63
  %65 = load i32, ptr %13, align 4, !tbaa !12
  %66 = add i32 %65, 1
  store i32 %66, ptr %13, align 4, !tbaa !12
  br label %32, !llvm.loop !95

67:                                               ; preds = %32
  %68 = load i64, ptr %7, align 8, !tbaa !10
  %69 = load ptr, ptr %11, align 8, !tbaa !37
  %70 = getelementptr inbounds nuw %struct.H5D_chunk_ud_t, ptr %69, i32 0, i32 2
  %71 = getelementptr inbounds nuw %struct.H5F_block_t, ptr %70, i32 0, i32 0
  store i64 %68, ptr %71, align 8, !tbaa !82
  %72 = load ptr, ptr %12, align 8, !tbaa !78
  %73 = getelementptr inbounds nuw %struct.H5D_btree_key_t, ptr %72, i32 0, i32 1
  %74 = load i32, ptr %73, align 8, !tbaa !86
  %75 = zext i32 %74 to i64
  %76 = load ptr, ptr %11, align 8, !tbaa !37
  %77 = getelementptr inbounds nuw %struct.H5D_chunk_ud_t, ptr %76, i32 0, i32 2
  %78 = getelementptr inbounds nuw %struct.H5F_block_t, ptr %77, i32 0, i32 1
  store i64 %75, ptr %78, align 8, !tbaa !85
  %79 = load ptr, ptr %12, align 8, !tbaa !78
  %80 = getelementptr inbounds nuw %struct.H5D_btree_key_t, ptr %79, i32 0, i32 2
  %81 = load i32, ptr %80, align 4, !tbaa !89
  %82 = load ptr, ptr %11, align 8, !tbaa !37
  %83 = getelementptr inbounds nuw %struct.H5D_chunk_ud_t, ptr %82, i32 0, i32 3
  store i32 %81, ptr %83, align 8, !tbaa !88
  %84 = load ptr, ptr %9, align 8, !tbaa !31
  store i8 1, ptr %84, align 1, !tbaa !14
  br label %85

85:                                               ; preds = %67, %60
  br label %86

86:                                               ; preds = %85, %23
  %87 = load i32, ptr %14, align 4, !tbaa !12
  call void @llvm.lifetime.end.p0(i64 4, ptr %14) #8
  call void @llvm.lifetime.end.p0(i64 4, ptr %13) #8
  call void @llvm.lifetime.end.p0(i64 8, ptr %12) #8
  call void @llvm.lifetime.end.p0(i64 8, ptr %11) #8
  ret i32 %87
}