; Function Attrs: nofree norecurse nosync nounwind memory(read, argmem: readwrite, inaccessiblemem: none) uwtable
define internal noundef i32 @H5D__btree_found(ptr readnone captures(none) %0, i64 noundef %1, ptr noundef readonly captures(none) %2, ptr noundef writeonly captures(none) %3, ptr noundef captures(none) %4) #12 {
  %6 = load i8, ptr @H5D_init_g, align 1, !tbaa !3, !range !7, !noundef !8
  %7 = trunc nuw i8 %6 to i1
  %8 = load i8, ptr @H5_libterm_g, align 1, !range !7
  %9 = trunc nuw i8 %8 to i1
  %10 = xor i1 %9, true
  %11 = select i1 %7, i1 true, i1 %10
  br i1 %11, label %.preheader, label %32, !prof !9

.preheader:                                       ; preds = %5
  %12 = load ptr, ptr %4, align 8, !tbaa !61
  %13 = getelementptr inbounds nuw i8, ptr %12, i64 8
  %14 = load i32, ptr %13, align 8, !tbaa !40
  %.not19 = icmp eq i32 %14, 0
  br i1 %.not19, label %._crit_edge, label %.lr.ph

.lr.ph:                                           ; preds = %.preheader
  %15 = getelementptr inbounds nuw i8, ptr %4, i64 16
  %16 = load ptr, ptr %15, align 8, !tbaa !62
  %wide.trip.count = zext i32 %14 to i64
  br label %18

17:                                               ; preds = %18
  %indvars.iv.next = add nuw nsw i64 %indvars.iv, 1
  %exitcond.not = icmp eq i64 %indvars.iv.next, %wide.trip.count
  br i1 %exitcond.not, label %._crit_edge, label %18, !llvm.loop !70

18:                                               ; preds = %.lr.ph, %17
  %indvars.iv = phi i64 [ 0, %.lr.ph ], [ %indvars.iv.next, %17 ]
  %19 = getelementptr inbounds nuw i64, ptr %16, i64 %indvars.iv
  %20 = load i64, ptr %19, align 8, !tbaa !20
  %21 = getelementptr inbounds nuw [33 x i64], ptr %2, i64 0, i64 %indvars.iv
  %22 = load i64, ptr %21, align 8, !tbaa !20
  %23 = add i64 %22, 1
  %.not = icmp ult i64 %20, %23
  br i1 %.not, label %17, label %.sink.split

._crit_edge:                                      ; preds = %17, %.preheader
  %24 = getelementptr inbounds nuw i8, ptr %4, i64 32
  store i64 %1, ptr %24, align 8, !tbaa !53
  %25 = getelementptr inbounds nuw i8, ptr %2, i64 264
  %26 = load i32, ptr %25, align 8, !tbaa !57
  %27 = zext i32 %26 to i64
  %28 = getelementptr inbounds nuw i8, ptr %4, i64 40
  store i64 %27, ptr %28, align 8, !tbaa !56
  %29 = getelementptr inbounds nuw i8, ptr %2, i64 268
  %30 = load i32, ptr %29, align 4, !tbaa !60
  %31 = getelementptr inbounds nuw i8, ptr %4, i64 48
  store i32 %30, ptr %31, align 8, !tbaa !59
  br label %.sink.split

.sink.split:                                      ; preds = %18, %._crit_edge
  %.sink = phi i8 [ 1, %._crit_edge ], [ 0, %18 ]
  store i8 %.sink, ptr %3, align 1, !tbaa !3
  br label %32

32:                                               ; preds = %.sink.split, %5
  ret i32 0
}